; Function Attrs: mustprogress uwtable
define void @_ZN4YAML14EmitFromEvents9BeginNodeEv(ptr noundef nonnull readonly align 8 captures(none) dereferenceable(96) %0) local_unnamed_addr #0 align 2 {
  %2 = getelementptr inbounds nuw i8, ptr %0, i64 64
  %3 = getelementptr inbounds nuw i8, ptr %0, i64 32
  %4 = load ptr, ptr %2, align 8, !tbaa !10
  %5 = load ptr, ptr %3, align 8, !tbaa !10
  %6 = icmp eq ptr %4, %5
  br i1 %6, label %40, label %7

7:                                                ; preds = %1
  %8 = getelementptr inbounds nuw i8, ptr %0, i64 72
  %9 = load ptr, ptr %8, align 8, !tbaa !13, !noalias !44
  %10 = icmp eq ptr %4, %9
  br i1 %10, label %11, label %_ZNSt5stackIN4YAML14EmitFromEvents5State5valueESt5dequeIS3_SaIS3_EEE3topEv.exit

11:                                               ; preds = %7
  %12 = getelementptr inbounds nuw i8, ptr %0, i64 88
  %13 = load ptr, ptr %12, align 8, !tbaa !17, !noalias !44
  %14 = getelementptr inbounds i8, ptr %13, i64 -8
  %15 = load ptr, ptr %14, align 8, !tbaa !18
  %16 = getelementptr inbounds nuw i8, ptr %15, i64 512
  br label %_ZNSt5stackIN4YAML14EmitFromEvents5State5valueESt5dequeIS3_SaIS3_EEE3topEv.exit

_ZNSt5stackIN4YAML14EmitFromEvents5State5valueESt5dequeIS3_SaIS3_EEE3topEv.exit: ; preds = %7, %11
  %17 = phi ptr [ %16, %11 ], [ %4, %7 ]
  %18 = getelementptr inbounds i8, ptr %17, i64 -4
  %19 = load i32, ptr %18, align 4, !tbaa !19
  switch i32 %19, label %40 [
    i32 1, label %20
    i32 2, label %27
  ]

20:                                               ; preds = %_ZNSt5stackIN4YAML14EmitFromEvents5State5valueESt5dequeIS3_SaIS3_EEE3topEv.exit
  %21 = getelementptr inbounds nuw i8, ptr %0, i64 8
  %22 = load ptr, ptr %21, align 8, !tbaa !21
  %23 = tail call noundef nonnull align 8 dereferenceable(72) ptr @_ZN4YAML7Emitter13SetLocalValueENS_13EMITTER_MANIPE(ptr noundef nonnull align 8 dereferenceable(72) %22, i32 noundef 32)
  %24 = load ptr, ptr %2, align 8, !tbaa !10, !noalias !47
  %25 = load ptr, ptr %8, align 8, !tbaa !13, !noalias !47
  %26 = icmp eq ptr %24, %25
  br i1 %26, label %.sink.split.sink.split, label %.sink.split

27:                                               ; preds = %_ZNSt5stackIN4YAML14EmitFromEvents5State5valueESt5dequeIS3_SaIS3_EEE3topEv.exit
  %28 = getelementptr inbounds nuw i8, ptr %0, i64 8
  %29 = load ptr, ptr %28, align 8, !tbaa !21
  %30 = tail call noundef nonnull align 8 dereferenceable(72) ptr @_ZN4YAML7Emitter13SetLocalValueENS_13EMITTER_MANIPE(ptr noundef nonnull align 8 dereferenceable(72) %29, i32 noundef 33)
  %31 = load ptr, ptr %2, align 8, !tbaa !10, !noalias !50
  %32 = load ptr, ptr %8, align 8, !tbaa !13, !noalias !50
  %33 = icmp eq ptr %31, %32
  br i1 %33, label %.sink.split.sink.split, label %.sink.split

.sink.split.sink.split:                           ; preds = %27, %20
  %.sink.ph = phi i32 [ 2, %20 ], [ 1, %27 ]
  %34 = getelementptr inbounds nuw i8, ptr %0, i64 88
  %35 = load ptr, ptr %34, align 8, !tbaa !17, !noalias !36
  %36 = getelementptr inbounds i8, ptr %35, i64 -8
  %37 = load ptr, ptr %36, align 8, !tbaa !18
  %38 = getelementptr inbounds nuw i8, ptr %37, i64 512
  br label %.sink.split

.sink.split:                                      ; preds = %.sink.split.sink.split, %27, %20
  %.sink4 = phi ptr [ %24, %20 ], [ %31, %27 ], [ %38, %.sink.split.sink.split ]
  %.sink = phi i32 [ 2, %20 ], [ 1, %27 ], [ %.sink.ph, %.sink.split.sink.split ]
  %39 = getelementptr inbounds i8, ptr %.sink4, i64 -4
  store i32 %.sink, ptr %39, align 4, !tbaa !19
  br label %40

40:                                               ; preds = %.sink.split, %_ZNSt5stackIN4YAML14EmitFromEvents5State5valueESt5dequeIS3_SaIS3_EEE3topEv.exit, %1
  ret void
}